; Function Attrs: nofree norecurse nosync nounwind memory(argmem: read) uwtable
define ptr @lv_image_get_bitmap_map_src(ptr noundef readonly captures(address_is_null) %0) local_unnamed_addr #3 {
  %.not = icmp eq ptr %0, null
  br i1 %.not, label %.preheader, label %2

.preheader:                                       ; preds = %1, %.preheader
  br label %.preheader

2:                                                ; preds = %1
  %3 = getelementptr inbounds nuw i8, ptr %0, i64 72
  %4 = load ptr, ptr %3, align 8, !tbaa !40
  ret ptr %4
}